target datalayout = "e-m:e-p270:32:32-p271:32:32-p272:64:64-i64:64-i128:128-f80:128-n8:16:32:64-S128"
target triple = "x86_64-pc-linux-gnu"

; Function Attrs: mustprogress nounwind uwtable
define void @_ZN3gmx27setBoxDeformationFlowMatrixEPA3_KfS2_PA3_f(ptr noundef %0, ptr noundef %1, ptr noundef %2) #2 {
  %4 = alloca ptr, align 8
  %5 = alloca ptr, align 8
  %6 = alloca ptr, align 8
  %7 = alloca i32, align 4
  %8 = alloca i32, align 4
  %9 = alloca i32, align 4
  store ptr %0, ptr %4, align 8, !tbaa !145
  store ptr %1, ptr %5, align 8, !tbaa !145
  store ptr %2, ptr %6, align 8, !tbaa !145
  call void @llvm.lifetime.start.p0(i64 4, ptr %7) #20
  store i32 0, ptr %7, align 4, !tbaa !129
  br label %10

10:                                               ; preds = %48, %3
  %11 = load i32, ptr %7, align 4, !tbaa !129
  %12 = icmp slt i32 %11, 3
  br i1 %12, label %14, label %13

13:                                               ; preds = %10
  store i32 2, ptr %8, align 4
  call void @llvm.lifetime.end.p0(i64 4, ptr %7) #20
  br label %51

14:                                               ; preds = %10
  call void @llvm.lifetime.start.p0(i64 4, ptr %9) #20
  store i32 0, ptr %9, align 4, !tbaa !129
  br label %15

15:                                               ; preds = %44, %14
  %16 = load i32, ptr %9, align 4, !tbaa !129
  %17 = icmp slt i32 %16, 3
  br i1 %17, label %19, label %18

18:                                               ; preds = %15
  store i32 5, ptr %8, align 4
  call void @llvm.lifetime.end.p0(i64 4, ptr %9) #20
  br label %47

19:                                               ; preds = %15
  %20 = load ptr, ptr %4, align 8, !tbaa !145
  %21 = load i32, ptr %9, align 4, !tbaa !129
  %22 = sext i32 %21 to i64
  %23 = getelementptr inbounds [3 x float], ptr %20, i64 %22
  %24 = load i32, ptr %7, align 4, !tbaa !129
  %25 = sext i32 %24 to i64
  %26 = getelementptr inbounds [3 x float], ptr %23, i64 0, i64 %25
  %27 = load float, ptr %26, align 4, !tbaa !154
  %28 = load ptr, ptr %5, align 8, !tbaa !145
  %29 = load i32, ptr %9, align 4, !tbaa !129
  %30 = sext i32 %29 to i64
  %31 = getelementptr inbounds [3 x float], ptr %28, i64 %30
  %32 = load i32, ptr %9, align 4, !tbaa !129
  %33 = sext i32 %32 to i64
  %34 = getelementptr inbounds [3 x float], ptr %31, i64 0, i64 %33
  %35 = load float, ptr %34, align 4, !tbaa !154
  %36 = fdiv float %27, %35
  %37 = load ptr, ptr %6, align 8, !tbaa !145
  %38 = load i32, ptr %7, align 4, !tbaa !129
  %39 = sext i32 %38 to i64
  %40 = getelementptr inbounds [3 x float], ptr %37, i64 %39
  %41 = load i32, ptr %9, align 4, !tbaa !129
  %42 = sext i32 %41 to i64
  %43 = getelementptr inbounds [3 x float], ptr %40, i64 0, i64 %42
  store float %36, ptr %43, align 4, !tbaa !154
  br label %44

44:                                               ; preds = %19
  %45 = load i32, ptr %9, align 4, !tbaa !129
  %46 = add nsw i32 %45, 1
  store i32 %46, ptr %9, align 4, !tbaa !129
  br label %15, !llvm.loop !314

47:                                               ; preds = %18
  br label %48

48:                                               ; preds = %47
  %49 = load i32, ptr %7, align 4, !tbaa !129
  %50 = add nsw i32 %49, 1
  store i32 %50, ptr %7, align 4, !tbaa !129
  br label %10, !llvm.loop !315

51:                                               ; preds = %13
  ret void
}